target datalayout = "e-m:e-p270:32:32-p271:32:32-p272:64:64-i64:64-i128:128-f80:128-n8:16:32:64-S128"
target triple = "x86_64-pc-linux-gnu"

%struct.Expr = type { i32 }
%struct.CaseWhen = type { %struct.Expr, ptr, ptr, i32 }
%struct.Node = type { i32 }

; Function Attrs: inlinehint nounwind uwtable
define internal ptr @newNode(i64 noundef %0, i32 noundef %1) #7 {
  %3 = alloca i64, align 8
  %4 = alloca i32, align 4
  %5 = alloca ptr, align 8
  store i64 %0, ptr %3, align 8
  store i32 %1, ptr %4, align 4
  call void @llvm.lifetime.start.p0(i64 8, ptr %5) #9
  %6 = load i64, ptr %3, align 8
  %7 = call ptr @palloc0(i64 noundef %6)
  store ptr %7, ptr %5, align 8
  %8 = load i32, ptr %4, align 4
  %9 = load ptr, ptr %5, align 8
  %10 = getelementptr inbounds nuw %struct.Node, ptr %9, i32 0, i32 0
  store i32 %8, ptr %10, align 4
  %11 = load ptr, ptr %5, align 8
  call void @llvm.lifetime.end.p0(i64 8, ptr %5) #9
  ret ptr %11
}

; Function Attrs: nounwind uwtable
define internal ptr @_readCaseWhen() #0 {
  %1 = alloca ptr, align 8
  %2 = alloca ptr, align 8
  %3 = alloca i32, align 4
  call void @llvm.lifetime.start.p0(i64 8, ptr %1) #9
  %4 = call ptr @newNode(i64 noundef 32, i32 noundef 33)
  store ptr %4, ptr %1, align 8
  call void @llvm.lifetime.start.p0(i64 8, ptr %2) #9
  call void @llvm.lifetime.start.p0(i64 4, ptr %3) #9
  %5 = call ptr @pg_strtok(ptr noundef %3)
  store ptr %5, ptr %2, align 8
  %6 = call ptr @nodeRead(ptr noundef null, i32 noundef 0)
  %7 = load ptr, ptr %1, align 8
  %8 = getelementptr inbounds nuw %struct.CaseWhen, ptr %7, i32 0, i32 1
  store ptr %6, ptr %8, align 8
  %9 = call ptr @pg_strtok(ptr noundef %3)
  store ptr %9, ptr %2, align 8
  %10 = call ptr @nodeRead(ptr noundef null, i32 noundef 0)
  %11 = load ptr, ptr %1, align 8
  %12 = getelementptr inbounds nuw %struct.CaseWhen, ptr %11, i32 0, i32 2
  store ptr %10, ptr %12, align 8
  %13 = call ptr @pg_strtok(ptr noundef %3)
  store ptr %13, ptr %2, align 8
  %14 = call ptr @pg_strtok(ptr noundef %3)
  store ptr %14, ptr %2, align 8
  %15 = load ptr, ptr %1, align 8
  %16 = getelementptr inbounds nuw %struct.CaseWhen, ptr %15, i32 0, i32 3
  store i32 -1, ptr %16, align 8
  %17 = load ptr, ptr %1, align 8
  call void @llvm.lifetime.end.p0(i64 4, ptr %3) #9
  call void @llvm.lifetime.end.p0(i64 8, ptr %2) #9
  call void @llvm.lifetime.end.p0(i64 8, ptr %1) #9
  ret ptr %17
}